(ideluge.core.torrentmanager
TorrentManagerState
p1
(dp2
S'torrents'
p3
(lp4
(ideluge.core.torrentmanager
TorrentState
p5
(dp6
S'max_download_speed'
p7
F-1
sS'move_completed_path'
p8
S'/home/deanpalmer/Downloads'
p9
sS'paused'
p10
I00
sS'max_upload_slots'
p11
I-1
sS'prioritize_first_last'
p12
I00
sS'max_connections'
p13
I-1
sS'compact'
p14
I00
sS'queue'
p15
I0
sS'file_priorities'
p16
(lp17
I4
aI4
aI4
aI4
aI4
aI4
aI4
aI4
aI4
aI4
aI4
aI4
aI4
aI4
aI4
aI4
aI4
aI4
aI4
aI4
aI4
aI4
aI4
aI4
aI4
aI4
aI4
aI4
aI4
aI4
aI4
aI4
aI4
aI4
aI4
aI4
aI4
aI4
aI4
aI4
aI4
aI4
aI4
aI4
aI4
aI4
aI4
aI4
aI4
aI4
aI4
aI4
aI4
aI4
aI4
aI4
aI4
aI4
aI4
aI4
aI4
aI4
aI4
aI4
aI4
aI4
aI4
aI4
aI4
aI4
aI4
aI4
aI4
aI4
aI4
aI4
aI4
aI4
aI4
aI4
aI4
aI4
aI4
aI4
aI4
aI4
aI4
aI4
aI4
aI4
aI4
aI4
aI4
aI4
aI4
aI4
aI4
aI4
aI4
aI4
aI4
aI4
aI4
aI4
aI4
aI4
aI4
aI4
aI4
aI4
aI4
aI4
aI4
aI4
aI4
aI4
aI4
aI4
aI4
aI4
aI4
aI4
aI4
aI4
aI4
aI4
aI4
aI4
aI4
aI4
aI4
aI4
aI4
aI4
aI4
aI4
aI4
aI4
aI4
aI4
aI4
aI4
aI4
aI4
aI4
aI4
aI4
aI4
aI4
aI4
aI4
aI4
aI4
aI4
aI4
aI4
aI4
aI4
aI4
aI4
aI4
aI4
aI4
aI4
aI4
aI4
aI4
aI4
aI4
aI4
aI4
aI4
aI4
aI4
aI4
aI4
aI4
aI4
aI4
aI4
aI4
aI4
aI4
aI4
aI4
aI4
aI4
aI4
aI4
aI4
aI4
aI4
aI4
aI4
aI4
aI4
aI4
aI4
aI4
aI4
aI4
aI4
asS'filename'
p18
S'66132602c1981e3e77489086f8af35b903d0643c'
p19
sS'max_upload_speed'
p20
F-1
sS'save_path'
p21
S'/home/deanpalmer/Downloads'
p22
sS'time_added'
p23
F1543320305.342958
sS'total_uploaded'
p24
I114688
sS'torrent_id'
p25
g19
sS'auto_managed'
p26
I01
sS'stop_at_ratio'
p27
I00
sS'move_completed'
p28
I00
sS'trackers'
p29
(lp30
(dp31
S'send_stats'
p32
I01
sS'fails'
p33
I0
sS'verified'
p34
I00
sS'scrape_incomplete'
p35
I-1
sS'min_announce'
p36
NsS'source'
p37
I4
sS'url'
p38
S'udp://open.demonii.com:1337'
p39
sS'last_error'
p40
(dp41
S'category'
p42
S'system'
p43
sS'value'
p44
I0
ssS'fail_limit'
p45
I0
sS'next_announce'
p46
NsS'complete_sent'
p47
I00
sS'scrape_downloaded'
p48
I-1
sS'trackerid'
p49
S''
sS'start_sent'
p50
I00
sS'tier'
p51
I0
sS'scrape_complete'
p52
I-1
sS'message'
p53
S''
sS'updating'
p54
I00
sa(dp55
S'send_stats'
p56
I01
sS'fails'
p57
I0
sS'verified'
p58
I00
sS'scrape_incomplete'
p59
I-1
sS'min_announce'
p60
NsS'source'
p61
I4
sS'url'
p62
S'udp://9.rarbg.com:2710/announce'
p63
sS'last_error'
p64
(dp65
S'category'
p66
S'system'
p67
sS'value'
p68
I0
ssS'fail_limit'
p69
I0
sS'next_announce'
p70
NsS'complete_sent'
p71
I00
sS'scrape_downloaded'
p72
I-1
sS'trackerid'
p73
S''
sS'start_sent'
p74
I00
sS'tier'
p75
I1
sS'scrape_complete'
p76
I-1
sS'message'
p77
S''
sS'updating'
p78
I00
sa(dp79
S'send_stats'
p80
I01
sS'fails'
p81
I0
sS'verified'
p82
I00
sS'scrape_incomplete'
p83
I-1
sS'min_announce'
p84
NsS'source'
p85
I4
sS'url'
p86
S'udp://coppersurfer.tk:6969/announce'
p87
sS'last_error'
p88
(dp89
S'category'
p90
S'system'
p91
sS'value'
p92
I0
ssS'fail_limit'
p93
I0
sS'next_announce'
p94
NsS'complete_sent'
p95
I00
sS'scrape_downloaded'
p96
I-1
sS'trackerid'
p97
S''
sS'start_sent'
p98
I00
sS'tier'
p99
I2
sS'scrape_complete'
p100
I-1
sS'message'
p101
S''
sS'updating'
p102
I00
sa(dp103
S'send_stats'
p104
I01
sS'fails'
p105
I0
sS'verified'
p106
I00
sS'scrape_incomplete'
p107
I-1
sS'min_announce'
p108
NsS'source'
p109
I4
sS'url'
p110
S'udp://tracker.openbittorrent.com:80/announce'
p111
sS'last_error'
p112
(dp113
S'category'
p114
S'system'
p115
sS'value'
p116
I0
ssS'fail_limit'
p117
I0
sS'next_announce'
p118
NsS'complete_sent'
p119
I00
sS'scrape_downloaded'
p120
I-1
sS'trackerid'
p121
S''
sS'start_sent'
p122
I00
sS'tier'
p123
I3
sS'scrape_complete'
p124
I-1
sS'message'
p125
S''
sS'updating'
p126
I00
sa(dp127
S'send_stats'
p128
I01
sS'fails'
p129
I0
sS'verified'
p130
I00
sS'scrape_incomplete'
p131
I-1
sS'min_announce'
p132
NsS'source'
p133
I4
sS'url'
p134
S'udp://tracker.zer0day.to:1337/announce'
p135
sS'last_error'
p136
(dp137
S'category'
p138
S'system'
p139
sS'value'
p140
I0
ssS'fail_limit'
p141
I0
sS'next_announce'
p142
NsS'complete_sent'
p143
I00
sS'scrape_downloaded'
p144
I-1
sS'trackerid'
p145
S''
sS'start_sent'
p146
I00
sS'tier'
p147
I4
sS'scrape_complete'
p148
I-1
sS'message'
p149
S''
sS'updating'
p150
I00
sa(dp151
S'send_stats'
p152
I01
sS'fails'
p153
I0
sS'verified'
p154
I00
sS'scrape_incomplete'
p155
I-1
sS'min_announce'
p156
NsS'source'
p157
I4
sS'url'
p158
S'udp://tracker.leechers-paradise.org:6969/announce'
p159
sS'last_error'
p160
(dp161
S'category'
p162
S'system'
p163
sS'value'
p164
I0
ssS'fail_limit'
p165
I0
sS'next_announce'
p166
NsS'complete_sent'
p167
I00
sS'scrape_downloaded'
p168
I-1
sS'trackerid'
p169
S''
sS'start_sent'
p170
I00
sS'tier'
p171
I5
sS'scrape_complete'
p172
I-1
sS'message'
p173
S''
sS'updating'
p174
I00
sa(dp175
S'send_stats'
p176
I01
sS'fails'
p177
I0
sS'verified'
p178
I00
sS'scrape_incomplete'
p179
I-1
sS'min_announce'
p180
NsS'source'
p181
I4
sS'url'
p182
S'udp://coppersurfer.tk:6969/announce'
p183
sS'last_error'
p184
(dp185
S'category'
p186
S'system'
p187
sS'value'
p188
I0
ssS'fail_limit'
p189
I0
sS'next_announce'
p190
NsS'complete_sent'
p191
I00
sS'scrape_downloaded'
p192
I-1
sS'trackerid'
p193
S''
sS'start_sent'
p194
I00
sS'tier'
p195
I6
sS'scrape_complete'
p196
I-1
sS'message'
p197
S''
sS'updating'
p198
I00
sasS'magnet'
p199
S'magnet:?xt=urn:btih:66132602C1981E3E77489086F8AF35B903D0643C&dn=Harry+Potter+Audio+Books+1-7%3B+Read+by+Stephen+Fry+%5BMP3%5D&tr=udp%3A%2F%2Fopen.demonii.com%3A1337&tr=udp%3A%2F%2F9.rarbg.com%3A2710%2Fannounce&tr=udp%3A%2F%2Fcoppersurfer.tk%3A6969%2Fannounce&tr=udp%3A%2F%2Ftracker.openbittorrent.com%3A80%2Fannounce&tr=udp%3A%2F%2Ftracker.zer0day.to%3A1337%2Fannounce&tr=udp%3A%2F%2Ftracker.leechers-paradise.org%3A6969%2Fannounce&tr=udp%3A%2F%2Fcoppersurfer.tk%3A6969%2Fannounce'
p200
sS'remove_at_ratio'
p201
I00
sS'stop_ratio'
p202
F2
sS'is_finished'
p203
I00
sbasb.